target datalayout = "e-m:e-p270:32:32-p271:32:32-p272:64:64-i64:64-i128:128-f80:128-n8:16:32:64-S128"
target triple = "x86_64-pc-linux-gnu"

%class.btAlignedObjectArray.0 = type <{ [4 x i8], i32, i32, [4 x i8], ptr, i8, [7 x i8] }>
%class.btAlignedObjectArray.2 = type <{ [4 x i8], i32, i32, [4 x i8], ptr, i8, [7 x i8] }>
%class.btDeformableBodySolver = type <{ %class.btSoftBodySolver.base, i32, %class.btAlignedObjectArray.2, %class.btAlignedObjectArray.2, %class.btAlignedObjectArray.2, %class.btAlignedObjectArray.2, %class.btAlignedObjectArray.4, %class.btAlignedObjectArray.2, float, [4 x i8], %class.btConjugateGradient, %class.btConjugateResidual, i8, [3 x i8], i32, float, i8, i8, [2 x i8], ptr, i8, [7 x i8] }>
%class.btSoftBodySolver.base = type <{ ptr, i32, i32, float }>
%class.btAlignedObjectArray.4 = type <{ [4 x i8], i32, i32, [4 x i8], ptr, i8, [7 x i8] }>
%class.btConjugateGradient = type { %class.btKrylovSolver, %class.btAlignedObjectArray.2, %class.btAlignedObjectArray.2, %class.btAlignedObjectArray.2, %class.btAlignedObjectArray.2 }
%class.btKrylovSolver = type { ptr, i32, float }
%class.btConjugateResidual = type <{ %class.btKrylovSolver, %class.btAlignedObjectArray.2, %class.btAlignedObjectArray.2, %class.btAlignedObjectArray.2, %class.btAlignedObjectArray.2, %class.btAlignedObjectArray.2, %class.btAlignedObjectArray.2, float, [4 x i8] }>
%class.btDeformableBackwardEulerObjective = type { ptr, float, [4 x i8], %class.btAlignedObjectArray.6, ptr, ptr, %class.btDeformableContactProjection, ptr, %class.btAlignedObjectArray.26, i8, ptr, ptr }
%class.btAlignedObjectArray.6 = type <{ [4 x i8], i32, i32, [4 x i8], ptr, i8, [7 x i8] }>
%class.btDeformableContactProjection = type <{ ptr, ptr, %class.btAlignedObjectArray.8, %class.btHashMap, %class.btAlignedObjectArray.14, %class.btAlignedObjectArray.16, %class.btAlignedObjectArray.18, %class.btAlignedObjectArray.20, %class.btAlignedObjectArray.22, %class.btAlignedObjectArray.24, i8, [7 x i8] }>
%class.btAlignedObjectArray.8 = type <{ [4 x i8], i32, i32, [4 x i8], ptr, i8, [7 x i8] }>
%class.btHashMap = type { %class.btAlignedObjectArray.0, %class.btAlignedObjectArray.0, %class.btAlignedObjectArray.10, %class.btAlignedObjectArray.12 }
%class.btAlignedObjectArray.10 = type <{ [4 x i8], i32, i32, [4 x i8], ptr, i8, [7 x i8] }>
%class.btAlignedObjectArray.12 = type <{ [4 x i8], i32, i32, [4 x i8], ptr, i8, [7 x i8] }>
%class.btAlignedObjectArray.14 = type <{ [4 x i8], i32, i32, [4 x i8], ptr, i8, [7 x i8] }>
%class.btAlignedObjectArray.16 = type <{ [4 x i8], i32, i32, [4 x i8], ptr, i8, [7 x i8] }>
%class.btAlignedObjectArray.18 = type <{ [4 x i8], i32, i32, [4 x i8], ptr, i8, [7 x i8] }>
%class.btAlignedObjectArray.20 = type <{ [4 x i8], i32, i32, [4 x i8], ptr, i8, [7 x i8] }>
%class.btAlignedObjectArray.22 = type <{ [4 x i8], i32, i32, [4 x i8], ptr, i8, [7 x i8] }>
%class.btAlignedObjectArray.24 = type <{ [4 x i8], i32, i32, [4 x i8], ptr, i8, [7 x i8] }>
%class.btAlignedObjectArray.26 = type <{ [4 x i8], i32, i32, [4 x i8], ptr, i8, [7 x i8] }>

; Function Attrs: mustprogress nounwind uwtable
define linkonce_odr dso_local void @_ZN34btDeformableBackwardEulerObjective11setImplicitEb(ptr noundef nonnull align 8 dereferenceable(504) %0, i1 noundef zeroext %1) #1 comdat align 2 {
  %3 = alloca ptr, align 8
  %4 = alloca i8, align 1
  store ptr %0, ptr %3, align 8, !tbaa !148
  %5 = zext i1 %1 to i8
  store i8 %5, ptr %4, align 1, !tbaa !257
  %6 = load ptr, ptr %3, align 8
  %7 = load i8, ptr %4, align 1, !tbaa !257, !range !90, !noundef !91
  %8 = trunc i8 %7 to i1
  %9 = getelementptr inbounds nuw %class.btDeformableBackwardEulerObjective, ptr %6, i32 0, i32 9
  %10 = zext i1 %8 to i8
  store i8 %10, ptr %9, align 8, !tbaa !343
  ret void
}

; Function Attrs: mustprogress uwtable
define dso_local void @_ZN22btDeformableBodySolver11setImplicitEb(ptr noundef nonnull align 8 dereferenceable(609) %0, i1 noundef zeroext %1) #7 align 2 {
  %3 = alloca ptr, align 8
  %4 = alloca i8, align 1
  store ptr %0, ptr %3, align 8, !tbaa !58
  %5 = zext i1 %1 to i8
  store i8 %5, ptr %4, align 1, !tbaa !257
  %6 = load ptr, ptr %3, align 8
  %7 = load i8, ptr %4, align 1, !tbaa !257, !range !90, !noundef !91
  %8 = trunc i8 %7 to i1
  %9 = getelementptr inbounds nuw %class.btDeformableBodySolver, ptr %6, i32 0, i32 12
  %10 = zext i1 %8 to i8
  store i8 %10, ptr %9, align 8, !tbaa !89
  %11 = getelementptr inbounds nuw %class.btDeformableBodySolver, ptr %6, i32 0, i32 19
  %12 = load ptr, ptr %11, align 8, !tbaa !74
  %13 = load i8, ptr %4, align 1, !tbaa !257, !range !90, !noundef !91
  %14 = trunc i8 %13 to i1
  call void @_ZN34btDeformableBackwardEulerObjective11setImplicitEb(ptr noundef nonnull align 8 dereferenceable(504) %12, i1 noundef zeroext %14)
  ret void
}