; Function Attrs: mustprogress nofree norecurse nosync nounwind willreturn memory(write, argmem: readwrite, inaccessiblemem: none) uwtable
define dso_local void @_ZN22btDeformableBodySolver11setImplicitEb(ptr noundef nonnull align 8 captures(none) dereferenceable(609) initializes((584, 585)) %0, i1 noundef zeroext %1) local_unnamed_addr #19 align 2 {
  %3 = zext i1 %1 to i8
  %4 = getelementptr inbounds nuw i8, ptr %0, i64 584
  store i8 %3, ptr %4, align 8, !tbaa !106
  %5 = getelementptr inbounds nuw i8, ptr %0, i64 600
  %6 = load ptr, ptr %5, align 8, !tbaa !104
  %7 = getelementptr inbounds nuw i8, ptr %6, i64 480
  store i8 %3, ptr %7, align 8, !tbaa !344
  ret void
}